target datalayout = "e-m:e-p270:32:32-p271:32:32-p272:64:64-i64:64-i128:128-f80:128-n8:16:32:64-S128"
target triple = "x86_64-unknown-linux-gnu"

%"class.QuantLib::Date" = type { i64 }

; Function Attrs: inlinehint mustprogress uwtable
define linkonce_odr noundef i32 @_ZNK8QuantLib4Date9dayOfYearEv(ptr noundef nonnull align 8 dereferenceable(8) %this) #6 comdat align 2 {
entry:
  %this.addr = alloca ptr, align 8
  store ptr %this, ptr %this.addr, align 8, !tbaa !3
  %this1 = load ptr, ptr %this.addr, align 8
  %serialNumber_ = getelementptr inbounds nuw %"class.QuantLib::Date", ptr %this1, i32 0, i32 0
  %0 = load i64, ptr %serialNumber_, align 8, !tbaa !21
  %call = call noundef i32 @_ZNK8QuantLib4Date4yearEv(ptr noundef nonnull align 8 dereferenceable(8) %this1)
  %call2 = call noundef i64 @_ZN8QuantLib4Date10yearOffsetEi(i32 noundef %call)
  %sub = sub nsw i64 %0, %call2
  %conv = trunc i64 %sub to i32
  ret i32 %conv
}

; Function Attrs: inlinehint mustprogress uwtable
define linkonce_odr noundef i32 @_ZNK8QuantLib4Date10dayOfMonthEv(ptr noundef nonnull align 8 dereferenceable(8) %this) #6 comdat align 2 {
entry:
  %this.addr = alloca ptr, align 8
  store ptr %this, ptr %this.addr, align 8, !tbaa !3
  %this1 = load ptr, ptr %this.addr, align 8
  %call = call noundef i32 @_ZNK8QuantLib4Date9dayOfYearEv(ptr noundef nonnull align 8 dereferenceable(8) %this1)
  %call2 = call noundef i32 @_ZNK8QuantLib4Date5monthEv(ptr noundef nonnull align 8 dereferenceable(8) %this1)
  %call3 = call noundef i32 @_ZNK8QuantLib4Date4yearEv(ptr noundef nonnull align 8 dereferenceable(8) %this1)
  %call4 = call noundef zeroext i1 @_ZN8QuantLib4Date6isLeapEi(i32 noundef %call3)
  %call5 = call noundef i32 @_ZN8QuantLib4Date11monthOffsetENS_5MonthEb(i32 noundef %call2, i1 noundef zeroext %call4)
  %sub = sub nsw i32 %call, %call5
  ret i32 %sub
}

; Function Attrs: inlinehint mustprogress nounwind uwtable
define linkonce_odr noundef i32 @_ZNK8QuantLib4Date7weekdayEv(ptr noundef nonnull align 8 dereferenceable(8) %this) #4 comdat align 2 {
entry:
  %this.addr = alloca ptr, align 8
  %w = alloca i32, align 4
  store ptr %this, ptr %this.addr, align 8, !tbaa !3
  %this1 = load ptr, ptr %this.addr, align 8
  call void @llvm.lifetime.start.p0(i64 4, ptr %w) #2
  %serialNumber_ = getelementptr inbounds nuw %"class.QuantLib::Date", ptr %this1, i32 0, i32 0
  %0 = load i64, ptr %serialNumber_, align 8, !tbaa !21
  %rem = srem i64 %0, 7
  %conv = trunc i64 %rem to i32
  store i32 %conv, ptr %w, align 4, !tbaa !17
  %1 = load i32, ptr %w, align 4, !tbaa !17
  %cmp = icmp eq i32 %1, 0
  br i1 %cmp, label %cond.true, label %cond.false

cond.true:                                        ; preds = %entry
  br label %cond.end

cond.false:                                       ; preds = %entry
  %2 = load i32, ptr %w, align 4, !tbaa !17
  br label %cond.end

cond.end:                                         ; preds = %cond.false, %cond.true
  %cond = phi i32 [ 7, %cond.true ], [ %2, %cond.false ]
  call void @llvm.lifetime.end.p0(i64 4, ptr %w) #2
  ret i32 %cond
}

; Function Attrs: mustprogress uwtable
define noundef zeroext i1 @_ZNK8QuantLib6Canada14SettlementImpl13isBusinessDayERKNS_4DateE(ptr noundef nonnull align 8 dereferenceable(104) %this, ptr noundef nonnull align 8 dereferenceable(8) %date) unnamed_addr #0 align 2 {
entry:
  %retval = alloca i1, align 1
  %this.addr = alloca ptr, align 8
  %date.addr = alloca ptr, align 8
  %w = alloca i32, align 4
  %d = alloca i32, align 4
  %dd = alloca i32, align 4
  %m = alloca i32, align 4
  %y = alloca i32, align 4
  %em = alloca i32, align 4
  %cleanup.dest.slot = alloca i32, align 4
  store ptr %this, ptr %this.addr, align 8, !tbaa !3
  store ptr %date, ptr %date.addr, align 8, !tbaa !3
  %this1 = load ptr, ptr %this.addr, align 8
  call void @llvm.lifetime.start.p0(i64 4, ptr %w) #2
  %0 = load ptr, ptr %date.addr, align 8, !tbaa !3
  %call = call noundef i32 @_ZNK8QuantLib4Date7weekdayEv(ptr noundef nonnull align 8 dereferenceable(8) %0)
  store i32 %call, ptr %w, align 4, !tbaa !15
  call void @llvm.lifetime.start.p0(i64 4, ptr %d) #2
  %1 = load ptr, ptr %date.addr, align 8, !tbaa !3
  %call2 = call noundef i32 @_ZNK8QuantLib4Date10dayOfMonthEv(ptr noundef nonnull align 8 dereferenceable(8) %1)
  store i32 %call2, ptr %d, align 4, !tbaa !17
  call void @llvm.lifetime.start.p0(i64 4, ptr %dd) #2
  %2 = load ptr, ptr %date.addr, align 8, !tbaa !3
  %call3 = call noundef i32 @_ZNK8QuantLib4Date9dayOfYearEv(ptr noundef nonnull align 8 dereferenceable(8) %2)
  store i32 %call3, ptr %dd, align 4, !tbaa !17
  call void @llvm.lifetime.start.p0(i64 4, ptr %m) #2
  %3 = load ptr, ptr %date.addr, align 8, !tbaa !3
  %call4 = call noundef i32 @_ZNK8QuantLib4Date5monthEv(ptr noundef nonnull align 8 dereferenceable(8) %3)
  store i32 %call4, ptr %m, align 4, !tbaa !19
  call void @llvm.lifetime.start.p0(i64 4, ptr %y) #2
  %4 = load ptr, ptr %date.addr, align 8, !tbaa !3
  %call5 = call noundef i32 @_ZNK8QuantLib4Date4yearEv(ptr noundef nonnull align 8 dereferenceable(8) %4)
  store i32 %call5, ptr %y, align 4, !tbaa !17
  call void @llvm.lifetime.start.p0(i64 4, ptr %em) #2
  %5 = load i32, ptr %y, align 4, !tbaa !17
  %call6 = call noundef i32 @_ZN8QuantLib8Calendar11WesternImpl12easterMondayEi(i32 noundef %5)
  store i32 %call6, ptr %em, align 4, !tbaa !17
  %6 = load i32, ptr %w, align 4, !tbaa !15
  %call7 = call noundef zeroext i1 @_ZNK8QuantLib8Calendar11WesternImpl9isWeekendENS_7WeekdayE(ptr noundef nonnull align 8 dereferenceable(104) %this1, i32 noundef %6)
  br i1 %call7, label %if.then, label %lor.lhs.false

lor.lhs.false:                                    ; preds = %entry
  %7 = load i32, ptr %d, align 4, !tbaa !17
  %cmp = icmp eq i32 %7, 1
  br i1 %cmp, label %land.lhs.true13, label %lor.lhs.false8

lor.lhs.false8:                                   ; preds = %lor.lhs.false
  %8 = load i32, ptr %d, align 4, !tbaa !17
  %cmp9 = icmp eq i32 %8, 2
  br i1 %cmp9, label %land.lhs.true, label %lor.lhs.false10

lor.lhs.false10:                                  ; preds = %lor.lhs.false8
  %9 = load i32, ptr %d, align 4, !tbaa !17
  %cmp11 = icmp eq i32 %9, 3
  br i1 %cmp11, label %land.lhs.true, label %lor.lhs.false15

land.lhs.true:                                    ; preds = %lor.lhs.false10, %lor.lhs.false8
  %10 = load i32, ptr %w, align 4, !tbaa !15
  %cmp12 = icmp eq i32 %10, 2
  br i1 %cmp12, label %land.lhs.true13, label %lor.lhs.false15

land.lhs.true13:                                  ; preds = %land.lhs.true, %lor.lhs.false
  %11 = load i32, ptr %m, align 4, !tbaa !19
  %cmp14 = icmp eq i32 %11, 1
  br i1 %cmp14, label %if.then, label %lor.lhs.false15

lor.lhs.false15:                                  ; preds = %land.lhs.true13, %land.lhs.true, %lor.lhs.false10
  %12 = load i32, ptr %d, align 4, !tbaa !17
  %cmp16 = icmp sge i32 %12, 15
  br i1 %cmp16, label %land.lhs.true17, label %lor.lhs.false25

land.lhs.true17:                                  ; preds = %lor.lhs.false15
  %13 = load i32, ptr %d, align 4, !tbaa !17
  %cmp18 = icmp sle i32 %13, 21
  br i1 %cmp18, label %land.lhs.true19, label %lor.lhs.false25

land.lhs.true19:                                  ; preds = %land.lhs.true17
  %14 = load i32, ptr %w, align 4, !tbaa !15
  %cmp20 = icmp eq i32 %14, 2
  br i1 %cmp20, label %land.lhs.true21, label %lor.lhs.false25

land.lhs.true21:                                  ; preds = %land.lhs.true19
  %15 = load i32, ptr %m, align 4, !tbaa !19
  %cmp22 = icmp eq i32 %15, 2
  br i1 %cmp22, label %land.lhs.true23, label %lor.lhs.false25

land.lhs.true23:                                  ; preds = %land.lhs.true21
  %16 = load i32, ptr %y, align 4, !tbaa !17
  %cmp24 = icmp sge i32 %16, 2008
  br i1 %cmp24, label %if.then, label %lor.lhs.false25

lor.lhs.false25:                                  ; preds = %land.lhs.true23, %land.lhs.true21, %land.lhs.true19, %land.lhs.true17, %lor.lhs.false15
  %17 = load i32, ptr %dd, align 4, !tbaa !17
  %18 = load i32, ptr %em, align 4, !tbaa !17
  %sub = sub nsw i32 %18, 3
  %cmp26 = icmp eq i32 %17, %sub
  br i1 %cmp26, label %if.then, label %lor.lhs.false27

lor.lhs.false27:                                  ; preds = %lor.lhs.false25
  %19 = load i32, ptr %d, align 4, !tbaa !17
  %cmp28 = icmp sgt i32 %19, 17
  br i1 %cmp28, label %land.lhs.true29, label %lor.lhs.false35

land.lhs.true29:                                  ; preds = %lor.lhs.false27
  %20 = load i32, ptr %d, align 4, !tbaa !17
  %cmp30 = icmp sle i32 %20, 24
  br i1 %cmp30, label %land.lhs.true31, label %lor.lhs.false35

land.lhs.true31:                                  ; preds = %land.lhs.true29
  %21 = load i32, ptr %w, align 4, !tbaa !15
  %cmp32 = icmp eq i32 %21, 2
  br i1 %cmp32, label %land.lhs.true33, label %lor.lhs.false35

land.lhs.true33:                                  ; preds = %land.lhs.true31
  %22 = load i32, ptr %m, align 4, !tbaa !19
  %cmp34 = icmp eq i32 %22, 5
  br i1 %cmp34, label %if.then, label %lor.lhs.false35

lor.lhs.false35:                                  ; preds = %land.lhs.true33, %land.lhs.true31, %land.lhs.true29, %lor.lhs.false27
  %23 = load i32, ptr %d, align 4, !tbaa !17
  %cmp36 = icmp eq i32 %23, 1
  br i1 %cmp36, label %land.lhs.true43, label %lor.lhs.false37

lor.lhs.false37:                                  ; preds = %lor.lhs.false35
  %24 = load i32, ptr %d, align 4, !tbaa !17
  %cmp38 = icmp eq i32 %24, 2
  br i1 %cmp38, label %land.lhs.true41, label %lor.lhs.false39

lor.lhs.false39:                                  ; preds = %lor.lhs.false37
  %25 = load i32, ptr %d, align 4, !tbaa !17
  %cmp40 = icmp eq i32 %25, 3
  br i1 %cmp40, label %land.lhs.true41, label %lor.lhs.false45

land.lhs.true41:                                  ; preds = %lor.lhs.false39, %lor.lhs.false37
  %26 = load i32, ptr %w, align 4, !tbaa !15
  %cmp42 = icmp eq i32 %26, 2
  br i1 %cmp42, label %land.lhs.true43, label %lor.lhs.false45

land.lhs.true43:                                  ; preds = %land.lhs.true41, %lor.lhs.false35
  %27 = load i32, ptr %m, align 4, !tbaa !19
  %cmp44 = icmp eq i32 %27, 7
  br i1 %cmp44, label %if.then, label %lor.lhs.false45

lor.lhs.false45:                                  ; preds = %land.lhs.true43, %land.lhs.true41, %lor.lhs.false39
  %28 = load i32, ptr %d, align 4, !tbaa !17
  %cmp46 = icmp sle i32 %28, 7
  br i1 %cmp46, label %land.lhs.true47, label %lor.lhs.false51

land.lhs.true47:                                  ; preds = %lor.lhs.false45
  %29 = load i32, ptr %w, align 4, !tbaa !15
  %cmp48 = icmp eq i32 %29, 2
  br i1 %cmp48, label %land.lhs.true49, label %lor.lhs.false51

land.lhs.true49:                                  ; preds = %land.lhs.true47
  %30 = load i32, ptr %m, align 4, !tbaa !19
  %cmp50 = icmp eq i32 %30, 8
  br i1 %cmp50, label %if.then, label %lor.lhs.false51

lor.lhs.false51:                                  ; preds = %land.lhs.true49, %land.lhs.true47, %lor.lhs.false45
  %31 = load i32, ptr %d, align 4, !tbaa !17
  %cmp52 = icmp sle i32 %31, 7
  br i1 %cmp52, label %land.lhs.true53, label %lor.lhs.false57

land.lhs.true53:                                  ; preds = %lor.lhs.false51
  %32 = load i32, ptr %w, align 4, !tbaa !15
  %cmp54 = icmp eq i32 %32, 2
  br i1 %cmp54, label %land.lhs.true55, label %lor.lhs.false57

land.lhs.true55:                                  ; preds = %land.lhs.true53
  %33 = load i32, ptr %m, align 4, !tbaa !19
  %cmp56 = icmp eq i32 %33, 9
  br i1 %cmp56, label %if.then, label %lor.lhs.false57

lor.lhs.false57:                                  ; preds = %land.lhs.true55, %land.lhs.true53, %lor.lhs.false51
  %34 = load i32, ptr %d, align 4, !tbaa !17
  %cmp58 = icmp eq i32 %34, 30
  br i1 %cmp58, label %land.lhs.true59, label %lor.lhs.false61

land.lhs.true59:                                  ; preds = %lor.lhs.false57
  %35 = load i32, ptr %m, align 4, !tbaa !19
  %cmp60 = icmp eq i32 %35, 9
  br i1 %cmp60, label %land.lhs.true67, label %lor.lhs.false61

lor.lhs.false61:                                  ; preds = %land.lhs.true59, %lor.lhs.false57
  %36 = load i32, ptr %d, align 4, !tbaa !17
  %cmp62 = icmp sle i32 %36, 2
  br i1 %cmp62, label %land.lhs.true63, label %lor.lhs.false69

land.lhs.true63:                                  ; preds = %lor.lhs.false61
  %37 = load i32, ptr %m, align 4, !tbaa !19
  %cmp64 = icmp eq i32 %37, 10
  br i1 %cmp64, label %land.lhs.true65, label %lor.lhs.false69

land.lhs.true65:                                  ; preds = %land.lhs.true63
  %38 = load i32, ptr %w, align 4, !tbaa !15
  %cmp66 = icmp eq i32 %38, 2
  br i1 %cmp66, label %land.lhs.true67, label %lor.lhs.false69

land.lhs.true67:                                  ; preds = %land.lhs.true65, %land.lhs.true59
  %39 = load i32, ptr %y, align 4, !tbaa !17
  %cmp68 = icmp sge i32 %39, 2021
  br i1 %cmp68, label %if.then, label %lor.lhs.false69

lor.lhs.false69:                                  ; preds = %land.lhs.true67, %land.lhs.true65, %land.lhs.true63, %lor.lhs.false61
  %40 = load i32, ptr %d, align 4, !tbaa !17
  %cmp70 = icmp sgt i32 %40, 7
  br i1 %cmp70, label %land.lhs.true71, label %lor.lhs.false77

land.lhs.true71:                                  ; preds = %lor.lhs.false69
  %41 = load i32, ptr %d, align 4, !tbaa !17
  %cmp72 = icmp sle i32 %41, 14
  br i1 %cmp72, label %land.lhs.true73, label %lor.lhs.false77

land.lhs.true73:                                  ; preds = %land.lhs.true71
  %42 = load i32, ptr %w, align 4, !tbaa !15
  %cmp74 = icmp eq i32 %42, 2
  br i1 %cmp74, label %land.lhs.true75, label %lor.lhs.false77

land.lhs.true75:                                  ; preds = %land.lhs.true73
  %43 = load i32, ptr %m, align 4, !tbaa !19
  %cmp76 = icmp eq i32 %43, 10
  br i1 %cmp76, label %if.then, label %lor.lhs.false77

lor.lhs.false77:                                  ; preds = %land.lhs.true75, %land.lhs.true73, %land.lhs.true71, %lor.lhs.false69
  %44 = load i32, ptr %d, align 4, !tbaa !17
  %cmp78 = icmp eq i32 %44, 11
  br i1 %cmp78, label %land.lhs.true85, label %lor.lhs.false79

lor.lhs.false79:                                  ; preds = %lor.lhs.false77
  %45 = load i32, ptr %d, align 4, !tbaa !17
  %cmp80 = icmp eq i32 %45, 12
  br i1 %cmp80, label %land.lhs.true83, label %lor.lhs.false81

lor.lhs.false81:                                  ; preds = %lor.lhs.false79
  %46 = load i32, ptr %d, align 4, !tbaa !17
  %cmp82 = icmp eq i32 %46, 13
  br i1 %cmp82, label %land.lhs.true83, label %lor.lhs.false87

land.lhs.true83:                                  ; preds = %lor.lhs.false81, %lor.lhs.false79
  %47 = load i32, ptr %w, align 4, !tbaa !15
  %cmp84 = icmp eq i32 %47, 2
  br i1 %cmp84, label %land.lhs.true85, label %lor.lhs.false87

land.lhs.true85:                                  ; preds = %land.lhs.true83, %lor.lhs.false77
  %48 = load i32, ptr %m, align 4, !tbaa !19
  %cmp86 = icmp eq i32 %48, 11
  br i1 %cmp86, label %if.then, label %lor.lhs.false87

lor.lhs.false87:                                  ; preds = %land.lhs.true85, %land.lhs.true83, %lor.lhs.false81
  %49 = load i32, ptr %d, align 4, !tbaa !17
  %cmp88 = icmp eq i32 %49, 25
  br i1 %cmp88, label %land.lhs.true95, label %lor.lhs.false89

lor.lhs.false89:                                  ; preds = %lor.lhs.false87
  %50 = load i32, ptr %d, align 4, !tbaa !17
  %cmp90 = icmp eq i32 %50, 27
  br i1 %cmp90, label %land.lhs.true91, label %lor.lhs.false97

land.lhs.true91:                                  ; preds = %lor.lhs.false89
  %51 = load i32, ptr %w, align 4, !tbaa !15
  %cmp92 = icmp eq i32 %51, 2
  br i1 %cmp92, label %land.lhs.true95, label %lor.lhs.false93

lor.lhs.false93:                                  ; preds = %land.lhs.true91
  %52 = load i32, ptr %w, align 4, !tbaa !15
  %cmp94 = icmp eq i32 %52, 3
  br i1 %cmp94, label %land.lhs.true95, label %lor.lhs.false97

land.lhs.true95:                                  ; preds = %lor.lhs.false93, %land.lhs.true91, %lor.lhs.false87
  %53 = load i32, ptr %m, align 4, !tbaa !19
  %cmp96 = icmp eq i32 %53, 12
  br i1 %cmp96, label %if.then, label %lor.lhs.false97

lor.lhs.false97:                                  ; preds = %land.lhs.true95, %lor.lhs.false93, %lor.lhs.false89
  %54 = load i32, ptr %d, align 4, !tbaa !17
  %cmp98 = icmp eq i32 %54, 26
  br i1 %cmp98, label %land.lhs.true105, label %lor.lhs.false99

lor.lhs.false99:                                  ; preds = %lor.lhs.false97
  %55 = load i32, ptr %d, align 4, !tbaa !17
  %cmp100 = icmp eq i32 %55, 28
  br i1 %cmp100, label %land.lhs.true101, label %if.end

land.lhs.true101:                                 ; preds = %lor.lhs.false99
  %56 = load i32, ptr %w, align 4, !tbaa !15
  %cmp102 = icmp eq i32 %56, 2
  br i1 %cmp102, label %land.lhs.true105, label %lor.lhs.false103

lor.lhs.false103:                                 ; preds = %land.lhs.true101
  %57 = load i32, ptr %w, align 4, !tbaa !15
  %cmp104 = icmp eq i32 %57, 3
  br i1 %cmp104, label %land.lhs.true105, label %if.end

land.lhs.true105:                                 ; preds = %lor.lhs.false103, %land.lhs.true101, %lor.lhs.false97
  %58 = load i32, ptr %m, align 4, !tbaa !19
  %cmp106 = icmp eq i32 %58, 12
  br i1 %cmp106, label %if.then, label %if.end

if.then:                                          ; preds = %land.lhs.true105, %land.lhs.true95, %land.lhs.true85, %land.lhs.true75, %land.lhs.true67, %land.lhs.true55, %land.lhs.true49, %land.lhs.true43, %land.lhs.true33, %lor.lhs.false25, %land.lhs.true23, %land.lhs.true13, %entry
  store i1 false, ptr %retval, align 1
  store i32 1, ptr %cleanup.dest.slot, align 4
  br label %cleanup

if.end:                                           ; preds = %land.lhs.true105, %lor.lhs.false103, %lor.lhs.false99
  store i1 true, ptr %retval, align 1
  store i32 1, ptr %cleanup.dest.slot, align 4
  br label %cleanup

cleanup:                                          ; preds = %if.end, %if.then
  call void @llvm.lifetime.end.p0(i64 4, ptr %em) #2
  call void @llvm.lifetime.end.p0(i64 4, ptr %y) #2
  call void @llvm.lifetime.end.p0(i64 4, ptr %m) #2
  call void @llvm.lifetime.end.p0(i64 4, ptr %dd) #2
  call void @llvm.lifetime.end.p0(i64 4, ptr %d) #2
  call void @llvm.lifetime.end.p0(i64 4, ptr %w) #2
  %59 = load i1, ptr %retval, align 1
  ret i1 %59
}