; Function Attrs: mustprogress uwtable
define noundef zeroext i1 @_ZNK8QuantLib6Canada14SettlementImpl13isBusinessDayERKNS_4DateE(ptr noundef nonnull align 8 dereferenceable(104) %this, ptr noundef nonnull align 8 dereferenceable(8) %date) unnamed_addr #0 align 2 {
entry:
  %0 = load i64, ptr %date, align 8, !tbaa !30
  %rem.i = srem i64 %0, 7
  %conv.i = trunc nsw i64 %rem.i to i32
  %cmp.i = icmp eq i64 %rem.i, 0
  %cond.i = select i1 %cmp.i, i32 7, i32 %conv.i
  %call.i.i = tail call noundef i32 @_ZNK8QuantLib4Date4yearEv(ptr noundef nonnull align 8 dereferenceable(8) %date)
  %call2.i.i = tail call noundef i64 @_ZN8QuantLib4Date10yearOffsetEi(i32 noundef %call.i.i)
  %sub.i.i = sub nsw i64 %0, %call2.i.i
  %conv.i.i = trunc i64 %sub.i.i to i32
  %call2.i = tail call noundef i32 @_ZNK8QuantLib4Date5monthEv(ptr noundef nonnull align 8 dereferenceable(8) %date)
  %call3.i = tail call noundef i32 @_ZNK8QuantLib4Date4yearEv(ptr noundef nonnull align 8 dereferenceable(8) %date)
  %call4.i = tail call noundef zeroext i1 @_ZN8QuantLib4Date6isLeapEi(i32 noundef %call3.i)
  %call5.i = tail call noundef i32 @_ZN8QuantLib4Date11monthOffsetENS_5MonthEb(i32 noundef %call2.i, i1 noundef zeroext %call4.i)
  %sub.i = sub nsw i32 %conv.i.i, %call5.i
  %1 = load i64, ptr %date, align 8, !tbaa !30
  %call.i = tail call noundef i32 @_ZNK8QuantLib4Date4yearEv(ptr noundef nonnull align 8 dereferenceable(8) %date)
  %call2.i118 = tail call noundef i64 @_ZN8QuantLib4Date10yearOffsetEi(i32 noundef %call.i)
  %sub.i119 = sub nsw i64 %1, %call2.i118
  %conv.i120 = trunc i64 %sub.i119 to i32
  %call4 = tail call noundef i32 @_ZNK8QuantLib4Date5monthEv(ptr noundef nonnull align 8 dereferenceable(8) %date)
  %call5 = tail call noundef i32 @_ZNK8QuantLib4Date4yearEv(ptr noundef nonnull align 8 dereferenceable(8) %date)
  %call6 = tail call noundef i32 @_ZN8QuantLib8Calendar11WesternImpl12easterMondayEi(i32 noundef %call5)
  %call7 = tail call noundef zeroext i1 @_ZNK8QuantLib8Calendar11WesternImpl9isWeekendENS_7WeekdayE(ptr noundef nonnull align 8 dereferenceable(104) %this, i32 noundef %cond.i)
  br i1 %call7, label %cleanup, label %lor.lhs.false

lor.lhs.false:                                    ; preds = %entry
  %cmp = icmp eq i32 %sub.i, 1
  br i1 %cmp, label %land.lhs.true13, label %lor.lhs.false8

lor.lhs.false8:                                   ; preds = %lor.lhs.false
  %2 = and i32 %sub.i, -2
  %or.cond = icmp eq i32 %2, 2
  %cmp12 = icmp eq i32 %cond.i, 2
  %or.cond1 = and i1 %cmp12, %or.cond
  %cmp14 = icmp eq i32 %call4, 1
  %or.cond2 = and i1 %or.cond1, %cmp14
  br i1 %or.cond2, label %cleanup, label %lor.lhs.false15

land.lhs.true13:                                  ; preds = %lor.lhs.false
  %cmp14.old = icmp eq i32 %call4, 1
  br i1 %cmp14.old, label %cleanup, label %lor.lhs.false15

lor.lhs.false15:                                  ; preds = %lor.lhs.false8, %land.lhs.true13
  %3 = add i32 %sub.i, -15
  %or.cond4 = icmp ult i32 %3, 7
  %cmp20 = icmp eq i32 %cond.i, 2
  %cmp22 = icmp eq i32 %call4, 2
  %4 = and i1 %or.cond4, %cmp22
  %cmp24 = icmp sgt i32 %call5, 2007
  %5 = and i1 %4, %cmp24
  %or.cond10 = and i1 %cmp20, %5
  %sub = add nsw i32 %call6, -3
  %cmp26 = icmp eq i32 %sub, %conv.i120
  %or.cond117 = select i1 %or.cond10, i1 true, i1 %cmp26
  br i1 %or.cond117, label %cleanup, label %lor.lhs.false27

lor.lhs.false27:                                  ; preds = %lor.lhs.false15
  %6 = add i32 %sub.i, -18
  %or.cond12 = icmp ult i32 %6, 7
  %cmp34 = icmp eq i32 %call4, 5
  %7 = and i1 %or.cond12, %cmp34
  %or.cond16 = and i1 %cmp20, %7
  br i1 %or.cond16, label %cleanup, label %lor.lhs.false35

lor.lhs.false35:                                  ; preds = %lor.lhs.false27
  br i1 %cmp, label %land.lhs.true43, label %lor.lhs.false37

lor.lhs.false37:                                  ; preds = %lor.lhs.false35
  %8 = and i32 %sub.i, -2
  %or.cond18 = icmp eq i32 %8, 2
  %cmp44 = icmp eq i32 %call4, 7
  %9 = and i1 %or.cond18, %cmp44
  %or.cond22 = and i1 %cmp20, %9
  br i1 %or.cond22, label %cleanup, label %lor.lhs.false45

land.lhs.true43:                                  ; preds = %lor.lhs.false35
  %cmp44.old = icmp eq i32 %call4, 7
  br i1 %cmp44.old, label %cleanup, label %lor.lhs.false45

lor.lhs.false45:                                  ; preds = %lor.lhs.false37, %land.lhs.true43
  %cmp46 = icmp slt i32 %sub.i, 8
  %or.cond24 = and i1 %cmp20, %cmp46
  %cmp50 = icmp eq i32 %call4, 8
  %or.cond26 = and i1 %or.cond24, %cmp50
  br i1 %or.cond26, label %cleanup, label %lor.lhs.false51

lor.lhs.false51:                                  ; preds = %lor.lhs.false45
  %cmp56 = icmp eq i32 %call4, 9
  %or.cond30 = and i1 %or.cond24, %cmp56
  br i1 %or.cond30, label %cleanup, label %lor.lhs.false57

lor.lhs.false57:                                  ; preds = %lor.lhs.false51
  %cmp58 = icmp eq i32 %sub.i, 30
  %or.cond32 = and i1 %cmp58, %cmp56
  br i1 %or.cond32, label %land.lhs.true67, label %lor.lhs.false61

lor.lhs.false61:                                  ; preds = %lor.lhs.false57
  %cmp62 = icmp slt i32 %sub.i, 3
  %cmp64 = icmp eq i32 %call4, 10
  %cmp68 = icmp sgt i32 %call5, 2020
  %10 = and i1 %cmp62, %cmp68
  %11 = and i1 %10, %cmp64
  %or.cond38 = and i1 %cmp20, %11
  br i1 %or.cond38, label %cleanup, label %lor.lhs.false69

land.lhs.true67:                                  ; preds = %lor.lhs.false57
  %cmp68.old = icmp sgt i32 %call5, 2020
  br i1 %cmp68.old, label %cleanup, label %if.end

lor.lhs.false69:                                  ; preds = %lor.lhs.false61
  %12 = add i32 %sub.i, -8
  %or.cond40 = icmp ult i32 %12, 7
  %13 = and i1 %or.cond40, %cmp64
  %or.cond44 = and i1 %cmp20, %13
  br i1 %or.cond44, label %cleanup, label %lor.lhs.false77

lor.lhs.false77:                                  ; preds = %lor.lhs.false69
  %cmp78 = icmp eq i32 %sub.i, 11
  br i1 %cmp78, label %land.lhs.true85, label %lor.lhs.false79

lor.lhs.false79:                                  ; preds = %lor.lhs.false77
  %14 = and i32 %sub.i, -2
  %or.cond46 = icmp eq i32 %14, 12
  %cmp86 = icmp eq i32 %call4, 11
  %15 = and i1 %or.cond46, %cmp86
  %or.cond50 = and i1 %cmp20, %15
  br i1 %or.cond50, label %cleanup, label %lor.lhs.false87

land.lhs.true85:                                  ; preds = %lor.lhs.false77
  %cmp86.old = icmp eq i32 %call4, 11
  br i1 %cmp86.old, label %cleanup, label %if.end

lor.lhs.false87:                                  ; preds = %lor.lhs.false79
  switch i32 %sub.i, label %if.end [
    i32 25, label %land.lhs.true95
    i32 27, label %land.lhs.true91
    i32 26, label %land.lhs.true105
    i32 28, label %land.lhs.true101
  ]

land.lhs.true91:                                  ; preds = %lor.lhs.false87
  %16 = and i32 %cond.i, -2
  %or.cond52 = icmp eq i32 %16, 2
  %cmp96 = icmp eq i32 %call4, 12
  %or.cond54 = and i1 %or.cond52, %cmp96
  br i1 %or.cond54, label %cleanup, label %if.end

land.lhs.true95:                                  ; preds = %lor.lhs.false87
  %cmp96.old = icmp eq i32 %call4, 12
  br i1 %cmp96.old, label %cleanup, label %if.end

land.lhs.true101:                                 ; preds = %lor.lhs.false87
  %17 = and i32 %cond.i, -2
  %or.cond56 = icmp eq i32 %17, 2
  %cmp106 = icmp eq i32 %call4, 12
  %or.cond58 = and i1 %or.cond56, %cmp106
  br i1 %or.cond58, label %cleanup, label %if.end

land.lhs.true105:                                 ; preds = %lor.lhs.false87
  %cmp106.old = icmp eq i32 %call4, 12
  br i1 %cmp106.old, label %cleanup, label %if.end

if.end:                                           ; preds = %land.lhs.true67, %land.lhs.true85, %land.lhs.true95, %land.lhs.true91, %lor.lhs.false87, %land.lhs.true101, %land.lhs.true105
  br label %cleanup

cleanup:                                          ; preds = %entry, %land.lhs.true13, %land.lhs.true43, %land.lhs.true67, %land.lhs.true85, %land.lhs.true95, %land.lhs.true105, %lor.lhs.false8, %lor.lhs.false15, %lor.lhs.false27, %lor.lhs.false37, %lor.lhs.false45, %lor.lhs.false51, %lor.lhs.false61, %lor.lhs.false69, %lor.lhs.false79, %land.lhs.true91, %land.lhs.true101, %if.end
  %retval.0 = phi i1 [ true, %if.end ], [ false, %land.lhs.true101 ], [ false, %land.lhs.true91 ], [ false, %lor.lhs.false79 ], [ false, %lor.lhs.false69 ], [ false, %lor.lhs.false61 ], [ false, %lor.lhs.false51 ], [ false, %lor.lhs.false45 ], [ false, %lor.lhs.false37 ], [ false, %lor.lhs.false27 ], [ false, %lor.lhs.false15 ], [ false, %lor.lhs.false8 ], [ false, %land.lhs.true105 ], [ false, %land.lhs.true95 ], [ false, %land.lhs.true85 ], [ false, %land.lhs.true67 ], [ false, %land.lhs.true43 ], [ false, %land.lhs.true13 ], [ false, %entry ]
  ret i1 %retval.0
}